; Function Attrs: nounwind uwtable
define hidden void @dissect_zbee_zdp_rsp_store_simple_desc(ptr noundef %0, ptr noundef %1, ptr noundef %2) local_unnamed_addr #0 {
  %4 = alloca i32, align 4
  store i32 0, ptr %4, align 4
  %5 = call zeroext i8 @zdp_parse_status(ptr noundef %2, ptr noundef %0, ptr noundef nonnull %4) #2
  %6 = call ptr @zdp_status_name(i8 noundef zeroext %5) #2
  call void (ptr, ptr, ptr, ...) @zbee_append_info(ptr noundef %2, ptr noundef %1, ptr noundef nonnull @.str.13, ptr noundef %6) #2
  %7 = load i32, ptr %4, align 4
  call void @zdp_dump_excess(ptr noundef %0, i32 noundef %7, ptr noundef %1, ptr noundef %2) #2
  ret void
}